target datalayout = "e-m:e-p270:32:32-p271:32:32-p272:64:64-i64:64-i128:128-f80:128-n8:16:32:64-S128"
target triple = "x86_64-pc-linux-gnu"

%struct.sentinelState = type { [41 x i8], i64, ptr, i32, i32, i64, i64, ptr, ptr, i32, i64, i32, ptr, ptr, i32, i32 }
%struct.sentinelRedisInstance = type { i32, ptr, ptr, i64, ptr, ptr, i64, i64, i64, i64, i64, i64, i64, i64, i64, ptr, i32, i64, i64, ptr, ptr, i32, i32, ptr, ptr, i64, i32, i32, i64, ptr, ptr, i32, i32, i64, ptr, i64, i64, i32, i64, i64, i64, i64, ptr, ptr, ptr, ptr }

@sentinel = dso_local global %struct.sentinelState zeroinitializer, align 8
@.str.21 = private unnamed_addr constant [11 x i8] c"sentinel.c\00", align 1
@.str.54 = private unnamed_addr constant [3 x i8] c"%@\00", align 1
@.str.196 = private unnamed_addr constant [11 x i8] c"+new-epoch\00", align 1
@.str.197 = private unnamed_addr constant [5 x i8] c"%llu\00", align 1
@.str.426 = private unnamed_addr constant [27 x i8] c"master->flags & SRI_MASTER\00", align 1
@.str.427 = private unnamed_addr constant [14 x i8] c"+try-failover\00", align 1

; Function Attrs: nounwind uwtable
define dso_local void @sentinelStartFailover(ptr noundef %0) #0 {
  %2 = alloca ptr, align 8
  store ptr %0, ptr %2, align 8, !tbaa !11
  %3 = load ptr, ptr %2, align 8, !tbaa !11
  %4 = getelementptr inbounds nuw %struct.sentinelRedisInstance, ptr %3, i32 0, i32 0
  %5 = load i32, ptr %4, align 8, !tbaa !34
  %6 = and i32 %5, 1
  %7 = icmp ne i32 %6, 0
  %8 = xor i1 %7, true
  %9 = xor i1 %8, true
  %10 = zext i1 %9 to i32
  %11 = sext i32 %10 to i64
  %12 = call i64 @llvm.expect.i64(i64 %11, i64 1)
  %13 = icmp ne i64 %12, 0
  br i1 %13, label %14, label %15

14:                                               ; preds = %1
  br label %17

15:                                               ; preds = %1
  call void @_serverAssert(ptr noundef @.str.426, ptr noundef @.str.21, i32 noundef 4928)
  call void @abort() #15
  unreachable

16:                                               ; No predecessors!
  br label %17

17:                                               ; preds = %16, %14
  %18 = load ptr, ptr %2, align 8, !tbaa !11
  %19 = getelementptr inbounds nuw %struct.sentinelRedisInstance, ptr %18, i32 0, i32 37
  store i32 1, ptr %19, align 8, !tbaa !193
  %20 = load ptr, ptr %2, align 8, !tbaa !11
  %21 = getelementptr inbounds nuw %struct.sentinelRedisInstance, ptr %20, i32 0, i32 0
  %22 = load i32, ptr %21, align 8, !tbaa !34
  %23 = or i32 %22, 64
  store i32 %23, ptr %21, align 8, !tbaa !34
  %24 = load i64, ptr getelementptr inbounds nuw (%struct.sentinelState, ptr @sentinel, i32 0, i32 1), align 8, !tbaa !63
  %25 = add i64 %24, 1
  store i64 %25, ptr getelementptr inbounds nuw (%struct.sentinelState, ptr @sentinel, i32 0, i32 1), align 8, !tbaa !63
  %26 = load ptr, ptr %2, align 8, !tbaa !11
  %27 = getelementptr inbounds nuw %struct.sentinelRedisInstance, ptr %26, i32 0, i32 36
  store i64 %25, ptr %27, align 8, !tbaa !192
  %28 = load ptr, ptr %2, align 8, !tbaa !11
  %29 = load i64, ptr getelementptr inbounds nuw (%struct.sentinelState, ptr @sentinel, i32 0, i32 1), align 8, !tbaa !63
  call void (i32, ptr, ptr, ptr, ...) @sentinelEvent(i32 noundef 3, ptr noundef @.str.196, ptr noundef %28, ptr noundef @.str.197, i64 noundef %29)
  %30 = load ptr, ptr %2, align 8, !tbaa !11
  call void (i32, ptr, ptr, ptr, ...) @sentinelEvent(i32 noundef 3, ptr noundef @.str.427, ptr noundef %30, ptr noundef @.str.54)
  %31 = call i64 @mstime()
  %32 = call i32 @rand() #16
  %33 = srem i32 %32, 1000
  %34 = sext i32 %33 to i64
  %35 = add nsw i64 %31, %34
  %36 = load ptr, ptr %2, align 8, !tbaa !11
  %37 = getelementptr inbounds nuw %struct.sentinelRedisInstance, ptr %36, i32 0, i32 39
  store i64 %35, ptr %37, align 8, !tbaa !195
  %38 = call i64 @mstime()
  %39 = load ptr, ptr %2, align 8, !tbaa !11
  %40 = getelementptr inbounds nuw %struct.sentinelRedisInstance, ptr %39, i32 0, i32 38
  store i64 %38, ptr %40, align 8, !tbaa !194
  ret void
}