; Function Attrs: nounwind uwtable
define dso_local void @sentinelStartFailover(ptr noundef captures(address_is_null) %0) local_unnamed_addr #0 {
  %2 = load i32, ptr %0, align 8, !tbaa !34
  %3 = and i32 %2, 1
  %.not = icmp eq i32 %3, 0
  br i1 %.not, label %4, label %5, !prof !144

4:                                                ; preds = %1
  tail call void @_serverAssert(ptr noundef nonnull @.str.426, ptr noundef nonnull @.str.21, i32 noundef 4928) #30
  tail call void @abort() #35
  unreachable

5:                                                ; preds = %1
  %6 = getelementptr inbounds nuw i8, ptr %0, i64 272
  store i32 1, ptr %6, align 8, !tbaa !169
  %7 = or i32 %2, 64
  store i32 %7, ptr %0, align 8, !tbaa !34
  %8 = load i64, ptr getelementptr inbounds nuw (i8, ptr @sentinel, i64 48), align 8, !tbaa !63
  %9 = add i64 %8, 1
  store i64 %9, ptr getelementptr inbounds nuw (i8, ptr @sentinel, i64 48), align 8, !tbaa !63
  %10 = getelementptr inbounds nuw i8, ptr %0, i64 264
  store i64 %9, ptr %10, align 8, !tbaa !242
  tail call void (i32, ptr, ptr, ptr, ...) @sentinelEvent(i32 noundef 3, ptr noundef nonnull @.str.196, ptr noundef nonnull %0, ptr noundef nonnull @.str.197, i64 noundef %9)
  tail call void (i32, ptr, ptr, ptr, ...) @sentinelEvent(i32 noundef 3, ptr noundef nonnull @.str.427, ptr noundef nonnull %0, ptr noundef nonnull @.str.54)
  %11 = tail call i64 @mstime() #30
  %12 = tail call i32 @rand() #30
  %13 = srem i32 %12, 1000
  %14 = sext i32 %13 to i64
  %15 = add nsw i64 %11, %14
  %16 = getelementptr inbounds nuw i8, ptr %0, i64 288
  store i64 %15, ptr %16, align 8, !tbaa !277
  %17 = tail call i64 @mstime() #30
  %18 = getelementptr inbounds nuw i8, ptr %0, i64 280
  store i64 %17, ptr %18, align 8, !tbaa !243
  ret void
}